target datalayout = "e-m:e-p270:32:32-p271:32:32-p272:64:64-i64:64-i128:128-f80:128-n8:16:32:64-S128"
target triple = "x86_64-pc-linux-gnu"

%struct.SDL_Surface = type { i32, i32, i32, i32, i32, ptr, i32, ptr, i32, i32, ptr, i32, ptr, i32, ptr, i32, %struct.SDL_Rect, %struct.SDL_BlitMap }
%struct.SDL_Rect = type { i32, i32, i32, i32 }
%struct.SDL_BlitMap = type { i32, ptr, ptr, %struct.SDL_BlitInfo, i32, i32 }
%struct.SDL_BlitInfo = type { ptr, ptr, i32, i32, i32, i32, ptr, ptr, i32, i32, i32, i32, ptr, ptr, ptr, ptr, ptr, ptr, i32, i32, i8, i8, i8, i8 }
%struct.SDL_PixelFormatDetails = type { i32, i8, i8, [2 x i8], i32, i32, i32, i32, i8, i8, i8, i8, i8, i8, i8, i8 }
%struct.SDL_Point = type { i32, i32 }

@.str = private unnamed_addr constant [26 x i8] c"Parameter '%s' is invalid\00", align 1
@.str.3 = private unnamed_addr constant [21 x i8] c"SDL_DrawLines(): dst\00", align 1
@.str.4 = private unnamed_addr constant [44 x i8] c"SDL_DrawLines(): Unsupported surface format\00", align 1

; Function Attrs: nounwind uwtable
define internal ptr @SDL_CalculateDrawLineFunc(ptr noundef %0) #0 {
  %2 = alloca ptr, align 8
  %3 = alloca ptr, align 8
  store ptr %0, ptr %3, align 8
  %4 = load ptr, ptr %3, align 8
  %5 = getelementptr inbounds nuw %struct.SDL_PixelFormatDetails, ptr %4, i32 0, i32 2
  %6 = load i8, ptr %5, align 1
  %7 = zext i8 %6 to i32
  switch i32 %7, label %18 [
    i32 1, label %8
    i32 2, label %16
    i32 4, label %17
  ]

8:                                                ; preds = %1
  %9 = load ptr, ptr %3, align 8
  %10 = getelementptr inbounds nuw %struct.SDL_PixelFormatDetails, ptr %9, i32 0, i32 1
  %11 = load i8, ptr %10, align 4
  %12 = zext i8 %11 to i32
  %13 = icmp slt i32 %12, 8
  br i1 %13, label %14, label %15

14:                                               ; preds = %8
  br label %18

15:                                               ; preds = %8
  store ptr @SDL_DrawLine1, ptr %2, align 8
  br label %19

16:                                               ; preds = %1
  store ptr @SDL_DrawLine2, ptr %2, align 8
  br label %19

17:                                               ; preds = %1
  store ptr @SDL_DrawLine4, ptr %2, align 8
  br label %19

18:                                               ; preds = %1, %14
  store ptr null, ptr %2, align 8
  br label %19

19:                                               ; preds = %18, %17, %16, %15
  %20 = load ptr, ptr %2, align 8
  ret ptr %20
}

; Function Attrs: nounwind uwtable
define hidden zeroext i1 @SDL_DrawLines(ptr noundef %0, ptr noundef %1, i32 noundef %2, i32 noundef %3) #0 {
  %5 = alloca i1, align 1
  %6 = alloca ptr, align 8
  %7 = alloca ptr, align 8
  %8 = alloca i32, align 4
  %9 = alloca i32, align 4
  %10 = alloca i32, align 4
  %11 = alloca i32, align 4
  %12 = alloca i32, align 4
  %13 = alloca i32, align 4
  %14 = alloca i32, align 4
  %15 = alloca i8, align 1
  %16 = alloca ptr, align 8
  %17 = alloca i32, align 4
  store ptr %0, ptr %6, align 8
  store ptr %1, ptr %7, align 8
  store i32 %2, ptr %8, align 4
  store i32 %3, ptr %9, align 4
  call void @llvm.lifetime.start.p0(i64 4, ptr %10) #4
  call void @llvm.lifetime.start.p0(i64 4, ptr %11) #4
  call void @llvm.lifetime.start.p0(i64 4, ptr %12) #4
  call void @llvm.lifetime.start.p0(i64 4, ptr %13) #4
  call void @llvm.lifetime.start.p0(i64 4, ptr %14) #4
  call void @llvm.lifetime.start.p0(i64 1, ptr %15) #4
  call void @llvm.lifetime.start.p0(i64 8, ptr %16) #4
  %18 = load ptr, ptr %6, align 8
  %19 = call zeroext i1 @SDL_SurfaceValid(ptr noundef %18)
  br i1 %19, label %22, label %20

20:                                               ; preds = %4
  %21 = call zeroext i1 (ptr, ...) @SDL_SetError_REAL(ptr noundef @.str, ptr noundef @.str.3)
  store i1 %21, ptr %5, align 1
  store i32 1, ptr %17, align 4
  br label %155

22:                                               ; preds = %4
  %23 = load ptr, ptr %6, align 8
  %24 = getelementptr inbounds nuw %struct.SDL_Surface, ptr %23, i32 0, i32 10
  %25 = load ptr, ptr %24, align 8
  %26 = call ptr @SDL_CalculateDrawLineFunc(ptr noundef %25)
  store ptr %26, ptr %16, align 8
  %27 = load ptr, ptr %16, align 8
  %28 = icmp ne ptr %27, null
  br i1 %28, label %31, label %29

29:                                               ; preds = %22
  %30 = call zeroext i1 (ptr, ...) @SDL_SetError_REAL(ptr noundef @.str.4)
  store i1 %30, ptr %5, align 1
  store i32 1, ptr %17, align 4
  br label %155

31:                                               ; preds = %22
  store i32 1, ptr %10, align 4
  br label %32

32:                                               ; preds = %107, %31
  %33 = load i32, ptr %10, align 4
  %34 = load i32, ptr %8, align 4
  %35 = icmp slt i32 %33, %34
  br i1 %35, label %36, label %110

36:                                               ; preds = %32
  %37 = load ptr, ptr %7, align 8
  %38 = load i32, ptr %10, align 4
  %39 = sub nsw i32 %38, 1
  %40 = sext i32 %39 to i64
  %41 = getelementptr inbounds %struct.SDL_Point, ptr %37, i64 %40
  %42 = getelementptr inbounds nuw %struct.SDL_Point, ptr %41, i32 0, i32 0
  %43 = load i32, ptr %42, align 4
  store i32 %43, ptr %11, align 4
  %44 = load ptr, ptr %7, align 8
  %45 = load i32, ptr %10, align 4
  %46 = sub nsw i32 %45, 1
  %47 = sext i32 %46 to i64
  %48 = getelementptr inbounds %struct.SDL_Point, ptr %44, i64 %47
  %49 = getelementptr inbounds nuw %struct.SDL_Point, ptr %48, i32 0, i32 1
  %50 = load i32, ptr %49, align 4
  store i32 %50, ptr %12, align 4
  %51 = load ptr, ptr %7, align 8
  %52 = load i32, ptr %10, align 4
  %53 = sext i32 %52 to i64
  %54 = getelementptr inbounds %struct.SDL_Point, ptr %51, i64 %53
  %55 = getelementptr inbounds nuw %struct.SDL_Point, ptr %54, i32 0, i32 0
  %56 = load i32, ptr %55, align 4
  store i32 %56, ptr %13, align 4
  %57 = load ptr, ptr %7, align 8
  %58 = load i32, ptr %10, align 4
  %59 = sext i32 %58 to i64
  %60 = getelementptr inbounds %struct.SDL_Point, ptr %57, i64 %59
  %61 = getelementptr inbounds nuw %struct.SDL_Point, ptr %60, i32 0, i32 1
  %62 = load i32, ptr %61, align 4
  store i32 %62, ptr %14, align 4
  %63 = load ptr, ptr %6, align 8
  %64 = getelementptr inbounds nuw %struct.SDL_Surface, ptr %63, i32 0, i32 16
  %65 = call zeroext i1 @SDL_GetRectAndLineIntersection_REAL(ptr noundef %64, ptr noundef %11, ptr noundef %12, ptr noundef %13, ptr noundef %14)
  br i1 %65, label %67, label %66

66:                                               ; preds = %36
  br label %107

67:                                               ; preds = %36
  %68 = load i32, ptr %11, align 4
  %69 = load i32, ptr %13, align 4
  %70 = icmp eq i32 %68, %69
  br i1 %70, label %71, label %75

71:                                               ; preds = %67
  %72 = load i32, ptr %12, align 4
  %73 = load i32, ptr %14, align 4
  %74 = icmp eq i32 %72, %73
  br i1 %74, label %95, label %75

75:                                               ; preds = %71, %67
  %76 = load i32, ptr %13, align 4
  %77 = load ptr, ptr %7, align 8
  %78 = load i32, ptr %10, align 4
  %79 = sext i32 %78 to i64
  %80 = getelementptr inbounds %struct.SDL_Point, ptr %77, i64 %79
  %81 = getelementptr inbounds nuw %struct.SDL_Point, ptr %80, i32 0, i32 0
  %82 = load i32, ptr %81, align 4
  %83 = icmp ne i32 %76, %82
  br i1 %83, label %93, label %84

84:                                               ; preds = %75
  %85 = load i32, ptr %14, align 4
  %86 = load ptr, ptr %7, align 8
  %87 = load i32, ptr %10, align 4
  %88 = sext i32 %87 to i64
  %89 = getelementptr inbounds %struct.SDL_Point, ptr %86, i64 %88
  %90 = getelementptr inbounds nuw %struct.SDL_Point, ptr %89, i32 0, i32 1
  %91 = load i32, ptr %90, align 4
  %92 = icmp ne i32 %85, %91
  br label %93

93:                                               ; preds = %84, %75
  %94 = phi i1 [ true, %75 ], [ %92, %84 ]
  br label %95

95:                                               ; preds = %93, %71
  %96 = phi i1 [ true, %71 ], [ %94, %93 ]
  %97 = zext i1 %96 to i8
  store i8 %97, ptr %15, align 1
  %98 = load ptr, ptr %16, align 8
  %99 = load ptr, ptr %6, align 8
  %100 = load i32, ptr %11, align 4
  %101 = load i32, ptr %12, align 4
  %102 = load i32, ptr %13, align 4
  %103 = load i32, ptr %14, align 4
  %104 = load i32, ptr %9, align 4
  %105 = load i8, ptr %15, align 1, !range !3, !noundef !4
  %106 = trunc i8 %105 to i1
  call void %98(ptr noundef %99, i32 noundef %100, i32 noundef %101, i32 noundef %102, i32 noundef %103, i32 noundef %104, i1 noundef zeroext %106)
  br label %107

107:                                              ; preds = %95, %66
  %108 = load i32, ptr %10, align 4
  %109 = add nsw i32 %108, 1
  store i32 %109, ptr %10, align 4
  br label %32, !llvm.loop !5

110:                                              ; preds = %32
  %111 = load ptr, ptr %7, align 8
  %112 = getelementptr inbounds %struct.SDL_Point, ptr %111, i64 0
  %113 = getelementptr inbounds nuw %struct.SDL_Point, ptr %112, i32 0, i32 0
  %114 = load i32, ptr %113, align 4
  %115 = load ptr, ptr %7, align 8
  %116 = load i32, ptr %8, align 4
  %117 = sub nsw i32 %116, 1
  %118 = sext i32 %117 to i64
  %119 = getelementptr inbounds %struct.SDL_Point, ptr %115, i64 %118
  %120 = getelementptr inbounds nuw %struct.SDL_Point, ptr %119, i32 0, i32 0
  %121 = load i32, ptr %120, align 4
  %122 = icmp ne i32 %114, %121
  br i1 %122, label %136, label %123

123:                                              ; preds = %110
  %124 = load ptr, ptr %7, align 8
  %125 = getelementptr inbounds %struct.SDL_Point, ptr %124, i64 0
  %126 = getelementptr inbounds nuw %struct.SDL_Point, ptr %125, i32 0, i32 1
  %127 = load i32, ptr %126, align 4
  %128 = load ptr, ptr %7, align 8
  %129 = load i32, ptr %8, align 4
  %130 = sub nsw i32 %129, 1
  %131 = sext i32 %130 to i64
  %132 = getelementptr inbounds %struct.SDL_Point, ptr %128, i64 %131
  %133 = getelementptr inbounds nuw %struct.SDL_Point, ptr %132, i32 0, i32 1
  %134 = load i32, ptr %133, align 4
  %135 = icmp ne i32 %127, %134
  br i1 %135, label %136, label %154

136:                                              ; preds = %123, %110
  %137 = load ptr, ptr %6, align 8
  %138 = load ptr, ptr %7, align 8
  %139 = load i32, ptr %8, align 4
  %140 = sub nsw i32 %139, 1
  %141 = sext i32 %140 to i64
  %142 = getelementptr inbounds %struct.SDL_Point, ptr %138, i64 %141
  %143 = getelementptr inbounds nuw %struct.SDL_Point, ptr %142, i32 0, i32 0
  %144 = load i32, ptr %143, align 4
  %145 = load ptr, ptr %7, align 8
  %146 = load i32, ptr %8, align 4
  %147 = sub nsw i32 %146, 1
  %148 = sext i32 %147 to i64
  %149 = getelementptr inbounds %struct.SDL_Point, ptr %145, i64 %148
  %150 = getelementptr inbounds nuw %struct.SDL_Point, ptr %149, i32 0, i32 1
  %151 = load i32, ptr %150, align 4
  %152 = load i32, ptr %9, align 4
  %153 = call zeroext i1 @SDL_DrawPoint(ptr noundef %137, i32 noundef %144, i32 noundef %151, i32 noundef %152)
  br label %154

154:                                              ; preds = %136, %123
  store i1 true, ptr %5, align 1
  store i32 1, ptr %17, align 4
  br label %155

155:                                              ; preds = %154, %29, %20
  call void @llvm.lifetime.end.p0(i64 8, ptr %16) #4
  call void @llvm.lifetime.end.p0(i64 1, ptr %15) #4
  call void @llvm.lifetime.end.p0(i64 4, ptr %14) #4
  call void @llvm.lifetime.end.p0(i64 4, ptr %13) #4
  call void @llvm.lifetime.end.p0(i64 4, ptr %12) #4
  call void @llvm.lifetime.end.p0(i64 4, ptr %11) #4
  call void @llvm.lifetime.end.p0(i64 4, ptr %10) #4
  %156 = load i1, ptr %5, align 1
  ret i1 %156
}