; Function Attrs: nounwind uwtable
define hidden zeroext i1 @SDL_DrawLines(ptr noundef %0, ptr noundef readonly captures(none) %1, i32 noundef %2, i32 noundef %3) local_unnamed_addr #0 {
  %5 = alloca i32, align 4
  %6 = alloca i32, align 4
  %7 = alloca i32, align 4
  %8 = alloca i32, align 4
  call void @llvm.lifetime.start.p0(i64 4, ptr nonnull %5) #6
  call void @llvm.lifetime.start.p0(i64 4, ptr nonnull %6) #6
  call void @llvm.lifetime.start.p0(i64 4, ptr nonnull %7) #6
  call void @llvm.lifetime.start.p0(i64 4, ptr nonnull %8) #6
  %9 = tail call zeroext i1 @SDL_SurfaceValid(ptr noundef %0) #6
  br i1 %9, label %12, label %10

10:                                               ; preds = %4
  %11 = tail call zeroext i1 (ptr, ...) @SDL_SetError_REAL(ptr noundef nonnull @.str, ptr noundef nonnull @.str.3) #6
  br label %64

12:                                               ; preds = %4
  %13 = getelementptr inbounds nuw i8, ptr %0, i64 56
  %14 = load ptr, ptr %13, align 8
  %15 = getelementptr inbounds nuw i8, ptr %14, i64 5
  %16 = load i8, ptr %15, align 1
  switch i8 %16, label %24 [
    i8 1, label %17
    i8 2, label %SDL_CalculateDrawLineFunc.exit
    i8 4, label %21
  ]

17:                                               ; preds = %12
  %18 = getelementptr inbounds nuw i8, ptr %14, i64 4
  %19 = load i8, ptr %18, align 4
  %20 = icmp ult i8 %19, 8
  br i1 %20, label %24, label %SDL_CalculateDrawLineFunc.exit

21:                                               ; preds = %12
  br label %SDL_CalculateDrawLineFunc.exit

SDL_CalculateDrawLineFunc.exit:                   ; preds = %12, %17, %21
  %.0.i = phi ptr [ @SDL_DrawLine4, %21 ], [ @SDL_DrawLine1, %17 ], [ @SDL_DrawLine2, %12 ]
  %22 = icmp sgt i32 %2, 1
  br i1 %22, label %.lr.ph, label %._crit_edge

.lr.ph:                                           ; preds = %SDL_CalculateDrawLineFunc.exit
  %23 = getelementptr inbounds nuw i8, ptr %0, i64 100
  %wide.trip.count = zext nneg i32 %2 to i64
  br label %26

24:                                               ; preds = %12, %17
  %25 = tail call zeroext i1 (ptr, ...) @SDL_SetError_REAL(ptr noundef nonnull @.str.4) #6
  br label %64

26:                                               ; preds = %.lr.ph, %50
  %indvars.iv = phi i64 [ 1, %.lr.ph ], [ %indvars.iv.next, %50 ]
  %27 = getelementptr %struct.SDL_Point, ptr %1, i64 %indvars.iv
  %28 = getelementptr i8, ptr %27, i64 -8
  %29 = load i32, ptr %28, align 4
  store i32 %29, ptr %5, align 4
  %30 = getelementptr i8, ptr %27, i64 -4
  %31 = load i32, ptr %30, align 4
  store i32 %31, ptr %6, align 4
  %32 = load i32, ptr %27, align 4
  store i32 %32, ptr %7, align 4
  %33 = getelementptr inbounds nuw i8, ptr %27, i64 4
  %34 = load i32, ptr %33, align 4
  store i32 %34, ptr %8, align 4
  %35 = call zeroext i1 @SDL_GetRectAndLineIntersection_REAL(ptr noundef nonnull %23, ptr noundef nonnull %5, ptr noundef nonnull %6, ptr noundef nonnull %7, ptr noundef nonnull %8) #6
  br i1 %35, label %36, label %50

36:                                               ; preds = %26
  %37 = load i32, ptr %5, align 4
  %38 = load i32, ptr %7, align 4
  %39 = icmp eq i32 %37, %38
  %.pre.pre = load i32, ptr %8, align 4
  %40 = load i32, ptr %6, align 4
  %41 = icmp eq i32 %40, %.pre.pre
  %or.cond = select i1 %39, i1 %41, i1 false
  br i1 %or.cond, label %47, label %42

42:                                               ; preds = %36
  %43 = load i32, ptr %27, align 4
  %.not40 = icmp eq i32 %38, %43
  br i1 %.not40, label %44, label %47

44:                                               ; preds = %42
  %45 = load i32, ptr %33, align 4
  %46 = icmp ne i32 %.pre.pre, %45
  br label %47

47:                                               ; preds = %36, %42, %44
  %48 = phi i1 [ true, %42 ], [ %46, %44 ], [ true, %36 ]
  %49 = load i32, ptr %6, align 4
  call void %.0.i(ptr noundef nonnull %0, i32 noundef %37, i32 noundef %49, i32 noundef %38, i32 noundef %.pre.pre, i32 noundef %3, i1 noundef zeroext %48) #6, !callees !3
  br label %50

50:                                               ; preds = %26, %47
  %indvars.iv.next = add nuw nsw i64 %indvars.iv, 1
  %exitcond.not = icmp eq i64 %indvars.iv.next, %wide.trip.count
  br i1 %exitcond.not, label %._crit_edge, label %26, !llvm.loop !4

._crit_edge:                                      ; preds = %50, %SDL_CalculateDrawLineFunc.exit
  %51 = load i32, ptr %1, align 4
  %52 = sext i32 %2 to i64
  %53 = getelementptr %struct.SDL_Point, ptr %1, i64 %52
  %54 = getelementptr i8, ptr %53, i64 -8
  %55 = load i32, ptr %54, align 4
  %.not38 = icmp eq i32 %51, %55
  br i1 %.not38, label %56, label %._crit_edge._crit_edge

._crit_edge._crit_edge:                           ; preds = %._crit_edge
  %.phi.trans.insert = getelementptr i8, ptr %53, i64 -4
  %.pre45 = load i32, ptr %.phi.trans.insert, align 4
  br label %61

56:                                               ; preds = %._crit_edge
  %57 = getelementptr inbounds nuw i8, ptr %1, i64 4
  %58 = load i32, ptr %57, align 4
  %59 = getelementptr i8, ptr %53, i64 -4
  %60 = load i32, ptr %59, align 4
  %.not39 = icmp eq i32 %58, %60
  br i1 %.not39, label %64, label %61

61:                                               ; preds = %._crit_edge._crit_edge, %56
  %62 = phi i32 [ %.pre45, %._crit_edge._crit_edge ], [ %60, %56 ]
  %63 = call zeroext i1 @SDL_DrawPoint(ptr noundef nonnull %0, i32 noundef %55, i32 noundef %62, i32 noundef %3) #6
  br label %64

64:                                               ; preds = %56, %61, %24, %10
  %.0 = phi i1 [ %25, %24 ], [ %11, %10 ], [ true, %61 ], [ true, %56 ]
  call void @llvm.lifetime.end.p0(i64 4, ptr nonnull %8) #6
  call void @llvm.lifetime.end.p0(i64 4, ptr nonnull %7) #6
  call void @llvm.lifetime.end.p0(i64 4, ptr nonnull %6) #6
  call void @llvm.lifetime.end.p0(i64 4, ptr nonnull %5) #6
  ret i1 %.0
}